target datalayout = "e-m:e-p270:32:32-p271:32:32-p272:64:64-i64:64-i128:128-f80:128-n8:16:32:64-S128"
target triple = "x86_64-pc-linux-gnu"

; Function Attrs: mustprogress nounwind uwtable
define void @_ZN5Ipopt13TripletHelper11FillRowCol_EiRKNS_10DiagMatrixEiiPiS4_(i32 noundef %0, ptr noundef nonnull align 8 dereferenceable(88) %1, i32 noundef %2, i32 noundef %3, ptr noundef %4, ptr noundef %5) #4 align 2 {
  %7 = alloca i32, align 4
  %8 = alloca ptr, align 8
  %9 = alloca i32, align 4
  %10 = alloca i32, align 4
  %11 = alloca ptr, align 8
  %12 = alloca ptr, align 8
  %13 = alloca i32, align 4
  store i32 %0, ptr %7, align 4, !tbaa !72
  store ptr %1, ptr %8, align 8, !tbaa !16
  store i32 %2, ptr %9, align 4, !tbaa !72
  store i32 %3, ptr %10, align 4, !tbaa !72
  store ptr %4, ptr %11, align 8, !tbaa !92
  store ptr %5, ptr %12, align 8, !tbaa !92
  %14 = load i32, ptr %9, align 4, !tbaa !72
  %15 = add nsw i32 %14, 1
  store i32 %15, ptr %9, align 4, !tbaa !72
  %16 = load i32, ptr %10, align 4, !tbaa !72
  %17 = add nsw i32 %16, 1
  store i32 %17, ptr %10, align 4, !tbaa !72
  call void @llvm.lifetime.start.p0(i64 4, ptr %13) #15
  store i32 0, ptr %13, align 4, !tbaa !72
  br label %18

18:                                               ; preds = %38, %6
  %19 = load i32, ptr %13, align 4, !tbaa !72
  %20 = load i32, ptr %7, align 4, !tbaa !72
  %21 = icmp slt i32 %19, %20
  br i1 %21, label %23, label %22

22:                                               ; preds = %18
  call void @llvm.lifetime.end.p0(i64 4, ptr %13) #15
  br label %41

23:                                               ; preds = %18
  %24 = load i32, ptr %13, align 4, !tbaa !72
  %25 = load i32, ptr %9, align 4, !tbaa !72
  %26 = add nsw i32 %24, %25
  %27 = load ptr, ptr %11, align 8, !tbaa !92
  %28 = load i32, ptr %13, align 4, !tbaa !72
  %29 = sext i32 %28 to i64
  %30 = getelementptr inbounds i32, ptr %27, i64 %29
  store i32 %26, ptr %30, align 4, !tbaa !72
  %31 = load i32, ptr %13, align 4, !tbaa !72
  %32 = load i32, ptr %10, align 4, !tbaa !72
  %33 = add nsw i32 %31, %32
  %34 = load ptr, ptr %12, align 8, !tbaa !92
  %35 = load i32, ptr %13, align 4, !tbaa !72
  %36 = sext i32 %35 to i64
  %37 = getelementptr inbounds i32, ptr %34, i64 %36
  store i32 %33, ptr %37, align 4, !tbaa !72
  br label %38

38:                                               ; preds = %23
  %39 = load i32, ptr %13, align 4, !tbaa !72
  %40 = add nsw i32 %39, 1
  store i32 %40, ptr %13, align 4, !tbaa !72
  br label %18, !llvm.loop !96

41:                                               ; preds = %22
  ret void
}