; Function Attrs: mustprogress nofree norecurse nosync nounwind memory(argmem: write) uwtable
define void @_ZN5Ipopt13TripletHelper11FillRowCol_EiRKNS_10DiagMatrixEiiPiS4_(i32 noundef %0, ptr noundef nonnull readnone align 8 captures(none) dereferenceable(88) %1, i32 noundef %2, i32 noundef %3, ptr noundef writeonly captures(none) %4, ptr noundef writeonly captures(none) %5) local_unnamed_addr #6 align 2 {
  %7 = icmp sgt i32 %0, 0
  br i1 %7, label %.lr.ph.preheader, label %._crit_edge

.lr.ph.preheader:                                 ; preds = %6
  %8 = add nsw i32 %3, 1
  %9 = add nsw i32 %2, 1
  %wide.trip.count = zext nneg i32 %0 to i64
  br label %.lr.ph

._crit_edge:                                      ; preds = %.lr.ph, %6
  ret void

.lr.ph:                                           ; preds = %.lr.ph.preheader, %.lr.ph
  %indvars.iv = phi i64 [ 0, %.lr.ph.preheader ], [ %indvars.iv.next, %.lr.ph ]
  %10 = getelementptr inbounds nuw i32, ptr %4, i64 %indvars.iv
  %11 = trunc i64 %indvars.iv to i32
  %12 = add i32 %9, %11
  store i32 %12, ptr %10, align 4, !tbaa !143
  %13 = getelementptr inbounds nuw i32, ptr %5, i64 %indvars.iv
  %14 = trunc i64 %indvars.iv to i32
  %15 = add i32 %8, %14
  store i32 %15, ptr %13, align 4, !tbaa !143
  %indvars.iv.next = add nuw nsw i64 %indvars.iv, 1
  %exitcond.not = icmp eq i64 %indvars.iv.next, %wide.trip.count
  br i1 %exitcond.not, label %._crit_edge, label %.lr.ph, !llvm.loop !154
}